target datalayout = "e-m:e-p270:32:32-p271:32:32-p272:64:64-i64:64-i128:128-f80:128-n8:16:32:64-S128"
target triple = "x86_64-pc-linux-gnu"

%struct.UriMemoryManagerStruct = type { ptr, ptr, ptr, ptr, ptr, ptr }
%struct.UriParserStateStructW = type { ptr, i32, ptr, ptr }

@defaultMemoryManager = external global %struct.UriMemoryManagerStruct, align 8

; Function Attrs: nounwind uwtable
define i32 @uriParseSingleUriExMmW(ptr noundef %0, ptr noundef %1, ptr noundef %2, ptr noundef %3, ptr noundef %4) #0 {
  %6 = alloca i32, align 4
  %7 = alloca ptr, align 8
  %8 = alloca ptr, align 8
  %9 = alloca ptr, align 8
  %10 = alloca ptr, align 8
  %11 = alloca ptr, align 8
  %12 = alloca %struct.UriParserStateStructW, align 8
  %13 = alloca i32, align 4
  %14 = alloca i32, align 4
  store ptr %0, ptr %7, align 8, !tbaa !66
  store ptr %1, ptr %8, align 8, !tbaa !61
  store ptr %2, ptr %9, align 8, !tbaa !61
  store ptr %3, ptr %10, align 8, !tbaa !69
  store ptr %4, ptr %11, align 8, !tbaa !10
  call void @llvm.lifetime.start.p0(i64 32, ptr %12) #7
  call void @llvm.lifetime.start.p0(i64 4, ptr %13) #7
  %15 = load ptr, ptr %7, align 8, !tbaa !66
  %16 = icmp eq ptr %15, null
  br i1 %16, label %23, label %17

17:                                               ; preds = %5
  %18 = load ptr, ptr %8, align 8, !tbaa !61
  %19 = icmp eq ptr %18, null
  br i1 %19, label %23, label %20

20:                                               ; preds = %17
  %21 = load ptr, ptr %9, align 8, !tbaa !61
  %22 = icmp eq ptr %21, null
  br i1 %22, label %23, label %24

23:                                               ; preds = %20, %17, %5
  store i32 2, ptr %6, align 4
  store i32 1, ptr %14, align 4
  br label %59

24:                                               ; preds = %20
  br label %25

25:                                               ; preds = %24
  %26 = load ptr, ptr %11, align 8, !tbaa !10
  %27 = icmp eq ptr %26, null
  br i1 %27, label %28, label %29

28:                                               ; preds = %25
  store ptr @defaultMemoryManager, ptr %11, align 8, !tbaa !10
  br label %35

29:                                               ; preds = %25
  %30 = load ptr, ptr %11, align 8, !tbaa !10
  %31 = call i32 @uriMemoryManagerIsComplete(ptr noundef %30)
  %32 = icmp ne i32 %31, 1
  br i1 %32, label %33, label %34

33:                                               ; preds = %29
  store i32 10, ptr %6, align 4
  store i32 1, ptr %14, align 4
  br label %59

34:                                               ; preds = %29
  br label %35

35:                                               ; preds = %34, %28
  br label %36

36:                                               ; preds = %35
  br label %37

37:                                               ; preds = %36
  %38 = load ptr, ptr %7, align 8, !tbaa !66
  %39 = getelementptr inbounds nuw %struct.UriParserStateStructW, ptr %12, i32 0, i32 0
  store ptr %38, ptr %39, align 8, !tbaa !63
  %40 = load ptr, ptr %8, align 8, !tbaa !61
  %41 = load ptr, ptr %9, align 8, !tbaa !61
  %42 = load ptr, ptr %11, align 8, !tbaa !10
  %43 = call i32 @uriParseUriExMmW(ptr noundef %12, ptr noundef %40, ptr noundef %41, ptr noundef %42)
  store i32 %43, ptr %13, align 4, !tbaa !21
  %44 = load i32, ptr %13, align 4, !tbaa !21
  %45 = icmp ne i32 %44, 0
  br i1 %45, label %46, label %57

46:                                               ; preds = %37
  %47 = load ptr, ptr %10, align 8, !tbaa !69
  %48 = icmp ne ptr %47, null
  br i1 %48, label %49, label %53

49:                                               ; preds = %46
  %50 = getelementptr inbounds nuw %struct.UriParserStateStructW, ptr %12, i32 0, i32 2
  %51 = load ptr, ptr %50, align 8, !tbaa !67
  %52 = load ptr, ptr %10, align 8, !tbaa !69
  store ptr %51, ptr %52, align 8, !tbaa !61
  br label %53

53:                                               ; preds = %49, %46
  %54 = load ptr, ptr %7, align 8, !tbaa !66
  %55 = load ptr, ptr %11, align 8, !tbaa !10
  %56 = call i32 @uriFreeUriMembersMmW(ptr noundef %54, ptr noundef %55)
  br label %57

57:                                               ; preds = %53, %37
  %58 = load i32, ptr %13, align 4, !tbaa !21
  store i32 %58, ptr %6, align 4
  store i32 1, ptr %14, align 4
  br label %59

59:                                               ; preds = %57, %33, %23
  call void @llvm.lifetime.end.p0(i64 4, ptr %13) #7
  call void @llvm.lifetime.end.p0(i64 32, ptr %12) #7
  %60 = load i32, ptr %6, align 4
  ret i32 %60
}

; Function Attrs: nounwind uwtable
define i32 @uriParseSingleUriExW(ptr noundef %0, ptr noundef %1, ptr noundef %2, ptr noundef %3) #0 {
  %5 = alloca ptr, align 8
  %6 = alloca ptr, align 8
  %7 = alloca ptr, align 8
  %8 = alloca ptr, align 8
  store ptr %0, ptr %5, align 8, !tbaa !66
  store ptr %1, ptr %6, align 8, !tbaa !61
  store ptr %2, ptr %7, align 8, !tbaa !61
  store ptr %3, ptr %8, align 8, !tbaa !69
  %9 = load ptr, ptr %7, align 8, !tbaa !61
  %10 = icmp eq ptr %9, null
  br i1 %10, label %11, label %19

11:                                               ; preds = %4
  %12 = load ptr, ptr %6, align 8, !tbaa !61
  %13 = icmp ne ptr %12, null
  br i1 %13, label %14, label %19

14:                                               ; preds = %11
  %15 = load ptr, ptr %6, align 8, !tbaa !61
  %16 = load ptr, ptr %6, align 8, !tbaa !61
  %17 = call i64 @wcslen(ptr noundef %16) #8
  %18 = getelementptr inbounds nuw i32, ptr %15, i64 %17
  store ptr %18, ptr %7, align 8, !tbaa !61
  br label %19

19:                                               ; preds = %14, %11, %4
  %20 = load ptr, ptr %5, align 8, !tbaa !66
  %21 = load ptr, ptr %6, align 8, !tbaa !61
  %22 = load ptr, ptr %7, align 8, !tbaa !61
  %23 = load ptr, ptr %8, align 8, !tbaa !69
  %24 = call i32 @uriParseSingleUriExMmW(ptr noundef %20, ptr noundef %21, ptr noundef %22, ptr noundef %23, ptr noundef null)
  ret i32 %24
}