; Function Attrs: nounwind uwtable
define i32 @uriParseSingleUriExW(ptr noundef %0, ptr noundef %1, ptr noundef %2, ptr noundef writeonly captures(address_is_null) %3) local_unnamed_addr #0 {
  %5 = alloca %struct.UriParserStateStructW, align 8
  %6 = icmp eq ptr %2, null
  %7 = icmp ne ptr %1, null
  %or.cond = and i1 %7, %6
  br i1 %or.cond, label %8, label %11

8:                                                ; preds = %4
  %9 = tail call i64 @wcslen(ptr noundef nonnull %1) #8
  %10 = getelementptr inbounds nuw i32, ptr %1, i64 %9
  br label %11

11:                                               ; preds = %8, %4
  %.0 = phi ptr [ %10, %8 ], [ %2, %4 ]
  call void @llvm.lifetime.start.p0(i64 32, ptr nonnull %5) #7
  %12 = icmp eq ptr %0, null
  %13 = icmp eq ptr %1, null
  %or.cond.i = or i1 %12, %13
  %14 = icmp eq ptr %.0, null
  %or.cond3.i = or i1 %or.cond.i, %14
  br i1 %or.cond3.i, label %uriParseSingleUriExMmW.exit, label %15

15:                                               ; preds = %11
  store ptr %0, ptr %5, align 8, !tbaa !51
  %16 = call fastcc i32 @uriParseUriExMmW(ptr noundef nonnull %5, ptr noundef nonnull %1, ptr noundef nonnull %.0, ptr noundef nonnull @defaultMemoryManager)
  %.not24.i = icmp eq i32 %16, 0
  br i1 %.not24.i, label %uriParseSingleUriExMmW.exit, label %17

17:                                               ; preds = %15
  %.not25.i = icmp eq ptr %3, null
  br i1 %.not25.i, label %21, label %18

18:                                               ; preds = %17
  %19 = getelementptr inbounds nuw i8, ptr %5, i64 16
  %20 = load ptr, ptr %19, align 8, !tbaa !68
  store ptr %20, ptr %3, align 8, !tbaa !70
  br label %21

21:                                               ; preds = %18, %17
  %22 = call i32 @uriFreeUriMembersMmW(ptr noundef nonnull %0, ptr noundef nonnull @defaultMemoryManager)
  br label %uriParseSingleUriExMmW.exit

uriParseSingleUriExMmW.exit:                      ; preds = %11, %15, %21
  %.0.i = phi i32 [ 2, %11 ], [ %16, %21 ], [ 0, %15 ]
  call void @llvm.lifetime.end.p0(i64 32, ptr nonnull %5) #7
  ret i32 %.0.i
}